Certificate:
    Data:
        Version: 3 (0x2)
        Serial Number: 1 (0x1)
        Signature Algorithm: sha256WithRSAEncryption
        Issuer: C=CA, ST=BC, O=Worth Doing Badly, CN=Worth Doing Badly DDI
        Validity
            Not Before: Apr 16 22:55:31 2007 GMT
            Not After : Apr 16 22:55:31 2014 GMT
        Subject: C=CA, ST=BC, O=Worth Doing Badly, CN=Worth Doing Badly DDI
        Subject Public Key Info:
            Public Key Algorithm: rsaEncryption
                Public-Key: (1024 bit)
                Modulus:
                    00:b0:e2:41:96:99:7e:0d:40:fa:51:d2:8e:88:08:
                    74:f5:05:23:51:9a:6d:5e:3b:8f:a6:38:79:c5:02:
                    59:a8:6e:31:ec:b8:cf:4e:e2:a2:ac:ec:a1:aa:87:
                    df:e5:1c:a5:15:31:4a:69:81:b4:f1:d9:e6:2a:95:
                    e4:4f:e2:57:1d:c7:df:ac:ca:b0:9f:38:c9:50:a5:
                    07:8c:9f:97:f3:00:0e:f2:00:61:09:ea:a1:16:b6:
                    d5:91:94:29:8c:5e:be:d6:51:e0:e5:b2:27:90:7f:
                    b6:76:a7:06:5f:ff:40:de:17:38:47:f2:64:be:75:
                    ea:75:81:4d:21:a3:5e:68:f1
                Exponent: 65537 (0x10001)
        X509v3 extensions:
            X509v3 Basic Constraints: 
                CA:FALSE
            X509v3 Subject Key Identifier: 
                61:DE:40:60:B3:42:20:61:4D:1E:52:8E:4A:C0:38:92:97:52:2B:F7
            X509v3 Authority Key Identifier: 
                DirName:/C=CA/ST=BC/O=Worth Doing Badly/CN=Worth Doing Badly DDI
                serial:01
    Signature Algorithm: sha256WithRSAEncryption
    Signature Value:
        4d:c0:3b:ba:b0:56:9f:bf:ce:65:4e:19:7d:94:2a:8d:b5:60:
        5c:ce:66:dc:bc:7f:eb:de:10:4a:fa:84:55:db:91:e4:da:32:
        9e:a4:31:1a:92:40:5d:98:d5:ca:6c:64:10:0e:98:c7:e8:4d:
        c6:b8:26:23:2d:c5:8d:bc:60:d8:78:a5:ae:bd:37:d0:6d:d7:
        2f:3e:cf:1d:bf:0e:d6:c0:90:3c:03:b2:64:cc:a0:49:93:cf:
        c4:fc:26:25:d0:c8:e6:6e:91:03:f6:33:d0:9e:26:ee:66:0a:
        ab:00:23:ae:0c:9b:b9:c9:38:40:03:0b:5f:bc:c1:f3:ee:01:
        0b:2b
-----BEGIN CERTIFICATE-----
MIICujCCAiOgAwIBAgIBATANBgkqhkiG9w0BAQsFADBWMQswCQYDVQQGEwJDQTEL
MAkGA1UECAwCQkMxGjAYBgNVBAoMEVdvcnRoIERvaW5nIEJhZGx5MR4wHAYDVQQD
DBVXb3J0aCBEb2luZyBCYWRseSBEREkwHhcNMDcwNDE2MjI1NTMxWhcNMTQwNDE2
MjI1NTMxWjBWMQswCQYDVQQGEwJDQTELMAkGA1UECAwCQkMxGjAYBgNVBAoMEVdv
cnRoIERvaW5nIEJhZGx5MR4wHAYDVQQDDBVXb3J0aCBEb2luZyBCYWRseSBEREkw
gZ8wDQYJKoZIhvcNAQEBBQADgY0AMIGJAoGBALDiQZaZfg1A+lHSjogIdPUFI1Ga
bV47j6Y4ecUCWahuMey4z07ioqzsoaqH3+UcpRUxSmmBtPHZ5iqV5E/iVx3H36zK
sJ84yVClB4yfl/MADvIAYQnqoRa21ZGUKYxevtZR4OWyJ5B/tnanBl//QN4XOEfy
ZL516nWBTSGjXmjxAgMBAAGjgZcwgZQwCQYDVR0TBAIwADAdBgNVHQ4EFgQUYd5A
YLNCIGFNHlKOSsA4kpdSK/cwaAYDVR0jBGEwX6FapFgwVjELMAkGA1UEBhMCQ0Ex
CzAJBgNVBAgMAkJDMRowGAYDVQQKDBFXb3J0aCBEb2luZyBCYWRseTEeMBwGA1UE
AwwVV29ydGggRG9pbmcgQmFkbHkgRERJggEBMA0GCSqGSIb3DQEBCwUAA4GBAE3A
O7qwVp+/zmVOGX2UKo21YFzOZty8f+veEEr6hFXbkeTaMp6kMRqSQF2Y1cpsZBAO
mMfoTca4JiMtxY28YNh4pa69N9Bt1y8+zx2/DtbAkDwDsmTMoEmTz8T8JiXQyOZu
kQP2M9CeJu5mCqsAI64Mm7nJOEADC1+8wfPuAQsr
-----END CERTIFICATE-----
